; Function Attrs: mustprogress nofree norecurse nosync nounwind willreturn memory(write, argmem: readwrite, inaccessiblemem: none) uwtable
define void @_ZN13device_list_t15register_deviceEP8device_t(ptr nocapture noundef nonnull align 8 dereferenceable(88) %0, ptr noundef %1) local_unnamed_addr #12 align 2 {
  %3 = getelementptr inbounds i8, ptr %0, i64 80
  %4 = load i64, ptr %3, align 8
  %5 = add i64 %4, 1
  store i64 %5, ptr %3, align 8
  %6 = load ptr, ptr %0, align 8
  %7 = getelementptr inbounds ptr, ptr %6, i64 %4
  store ptr %1, ptr %7, align 8
  ret void
}